target datalayout = "e-m:e-p270:32:32-p271:32:32-p272:64:64-i64:64-i128:128-f80:128-n8:16:32:64-S128"
target triple = "x86_64-pc-linux-gnu"

%struct.ObjectAddress = type { i32, i32, i32 }
%struct.HeapTupleData = type { i32, %struct.ItemPointerData, i32, ptr }
%struct.ItemPointerData = type { %struct.BlockIdData, i16 }
%struct.BlockIdData = type { i16, i16 }
%struct.HeapTupleHeaderData = type { %union.anon, %struct.ItemPointerData, i16, i16, i8, [0 x i8] }
%union.anon = type { %struct.HeapTupleFields }
%struct.HeapTupleFields = type { i32, i32, %union.anon.0 }
%union.anon.0 = type { i32 }
%struct.ScanKeyData = type { i32, i16, i16, i32, i32, %struct.FmgrInfo, i64 }
%struct.FmgrInfo = type { ptr, i32, i16, i8, i8, i8, ptr, ptr, ptr }
%struct.FormData_pg_attrdef = type { i32, i32, i16 }

@.str.1 = private unnamed_addr constant [13 x i8] c"pg_attrdef.c\00", align 1
@.str.2 = private unnamed_addr constant [55 x i8] c"could not find attrdef tuple for relation %u attnum %d\00", align 1
@__func__.RemoveAttrDefault = private unnamed_addr constant [18 x i8] c"RemoveAttrDefault\00", align 1

; Function Attrs: inlinehint nounwind uwtable
define internal ptr @GETSTRUCT(ptr noundef %0) #3 {
  %2 = alloca ptr, align 8
  store ptr %0, ptr %2, align 8
  %3 = load ptr, ptr %2, align 8
  %4 = getelementptr inbounds nuw %struct.HeapTupleData, ptr %3, i32 0, i32 3
  %5 = load ptr, ptr %4, align 8
  %6 = load ptr, ptr %2, align 8
  %7 = getelementptr inbounds nuw %struct.HeapTupleData, ptr %6, i32 0, i32 3
  %8 = load ptr, ptr %7, align 8
  %9 = getelementptr inbounds nuw %struct.HeapTupleHeaderData, ptr %8, i32 0, i32 4
  %10 = load i8, ptr %9, align 2
  %11 = zext i8 %10 to i32
  %12 = sext i32 %11 to i64
  %13 = getelementptr inbounds i8, ptr %5, i64 %12
  ret ptr %13
}

; Function Attrs: inlinehint nounwind uwtable
define internal i64 @Int16GetDatum(i16 noundef signext %0) #3 {
  %2 = alloca i16, align 2
  store i16 %0, ptr %2, align 2
  %3 = load i16, ptr %2, align 2
  %4 = sext i16 %3 to i64
  ret i64 %4
}

; Function Attrs: inlinehint nounwind uwtable
define internal i64 @ObjectIdGetDatum(i32 noundef %0) #3 {
  %2 = alloca i32, align 4
  store i32 %0, ptr %2, align 4
  %3 = load i32, ptr %2, align 4
  %4 = zext i32 %3 to i64
  ret i64 %4
}

; Function Attrs: nounwind uwtable
define dso_local void @RemoveAttrDefault(i32 noundef %0, i16 noundef signext %1, i32 noundef %2, i1 noundef zeroext %3, i1 noundef zeroext %4) #0 {
  %6 = alloca i32, align 4
  %7 = alloca i16, align 2
  %8 = alloca i32, align 4
  %9 = alloca i8, align 1
  %10 = alloca i8, align 1
  %11 = alloca ptr, align 8
  %12 = alloca [2 x %struct.ScanKeyData], align 16
  %13 = alloca ptr, align 8
  %14 = alloca ptr, align 8
  %15 = alloca i8, align 1
  %16 = alloca %struct.ObjectAddress, align 4
  %17 = alloca ptr, align 8
  store i32 %0, ptr %6, align 4
  store i16 %1, ptr %7, align 2
  store i32 %2, ptr %8, align 4
  %18 = zext i1 %3 to i8
  store i8 %18, ptr %9, align 1
  %19 = zext i1 %4 to i8
  store i8 %19, ptr %10, align 1
  call void @llvm.lifetime.start.p0(i64 8, ptr %11) #7
  call void @llvm.lifetime.start.p0(i64 144, ptr %12) #7
  call void @llvm.lifetime.start.p0(i64 8, ptr %13) #7
  call void @llvm.lifetime.start.p0(i64 8, ptr %14) #7
  call void @llvm.lifetime.start.p0(i64 1, ptr %15) #7
  store i8 0, ptr %15, align 1
  %20 = call ptr @table_open(i32 noundef 2604, i32 noundef 3)
  store ptr %20, ptr %11, align 8
  %21 = getelementptr inbounds [2 x %struct.ScanKeyData], ptr %12, i64 0, i64 0
  %22 = load i32, ptr %6, align 4
  %23 = call i64 @ObjectIdGetDatum(i32 noundef %22)
  call void @ScanKeyInit(ptr noundef %21, i16 noundef signext 2, i16 noundef zeroext 3, i32 noundef 184, i64 noundef %23)
  %24 = getelementptr inbounds [2 x %struct.ScanKeyData], ptr %12, i64 0, i64 1
  %25 = load i16, ptr %7, align 2
  %26 = call i64 @Int16GetDatum(i16 noundef signext %25)
  call void @ScanKeyInit(ptr noundef %24, i16 noundef signext 3, i16 noundef zeroext 3, i32 noundef 63, i64 noundef %26)
  %27 = load ptr, ptr %11, align 8
  %28 = getelementptr inbounds [2 x %struct.ScanKeyData], ptr %12, i64 0, i64 0
  %29 = call ptr @systable_beginscan(ptr noundef %27, i32 noundef 2656, i1 noundef zeroext true, ptr noundef null, i32 noundef 2, ptr noundef %28)
  store ptr %29, ptr %13, align 8
  br label %30

30:                                               ; preds = %34, %5
  %31 = load ptr, ptr %13, align 8
  %32 = call ptr @systable_getnext(ptr noundef %31)
  store ptr %32, ptr %14, align 8
  %33 = icmp ne ptr %32, null
  br i1 %33, label %34, label %47

34:                                               ; preds = %30
  call void @llvm.lifetime.start.p0(i64 12, ptr %16) #7
  call void @llvm.lifetime.start.p0(i64 8, ptr %17) #7
  %35 = load ptr, ptr %14, align 8
  %36 = call ptr @GETSTRUCT(ptr noundef %35)
  store ptr %36, ptr %17, align 8
  %37 = getelementptr inbounds nuw %struct.ObjectAddress, ptr %16, i32 0, i32 0
  store i32 2604, ptr %37, align 4
  %38 = load ptr, ptr %17, align 8
  %39 = getelementptr inbounds nuw %struct.FormData_pg_attrdef, ptr %38, i32 0, i32 0
  %40 = load i32, ptr %39, align 4
  %41 = getelementptr inbounds nuw %struct.ObjectAddress, ptr %16, i32 0, i32 1
  store i32 %40, ptr %41, align 4
  %42 = getelementptr inbounds nuw %struct.ObjectAddress, ptr %16, i32 0, i32 2
  store i32 0, ptr %42, align 4
  %43 = load i32, ptr %8, align 4
  %44 = load i8, ptr %10, align 1, !range !4, !noundef !5
  %45 = trunc i8 %44 to i1
  %46 = select i1 %45, i32 1, i32 0
  call void @performDeletion(ptr noundef %16, i32 noundef %43, i32 noundef %46)
  store i8 1, ptr %15, align 1
  call void @llvm.lifetime.end.p0(i64 8, ptr %17) #7
  call void @llvm.lifetime.end.p0(i64 12, ptr %16) #7
  br label %30, !llvm.loop !6

47:                                               ; preds = %30
  %48 = load ptr, ptr %13, align 8
  call void @systable_endscan(ptr noundef %48)
  %49 = load ptr, ptr %11, align 8
  call void @table_close(ptr noundef %49, i32 noundef 3)
  %50 = load i8, ptr %9, align 1, !range !4, !noundef !5
  %51 = trunc i8 %50 to i1
  br i1 %51, label %52, label %69

52:                                               ; preds = %47
  %53 = load i8, ptr %15, align 1, !range !4, !noundef !5
  %54 = trunc i8 %53 to i1
  br i1 %54, label %69, label %55

55:                                               ; preds = %52
  br label %56

56:                                               ; preds = %55
  br i1 true, label %57, label %59

57:                                               ; preds = %56
  %58 = call zeroext i1 @errstart_cold(i32 noundef 21, ptr noundef null) #8
  br i1 %58, label %61, label %66

59:                                               ; preds = %56
  %60 = call zeroext i1 @errstart(i32 noundef 21, ptr noundef null)
  br i1 %60, label %61, label %66

61:                                               ; preds = %59, %57
  %62 = load i32, ptr %6, align 4
  %63 = load i16, ptr %7, align 2
  %64 = sext i16 %63 to i32
  %65 = call i32 (ptr, ...) @errmsg_internal(ptr noundef @.str.2, i32 noundef %62, i32 noundef %64)
  call void @errfinish(ptr noundef @.str.1, i32 noundef 257, ptr noundef @__func__.RemoveAttrDefault)
  br label %66

66:                                               ; preds = %61, %59, %57
  unreachable

67:                                               ; No predecessors!
  br label %68

68:                                               ; preds = %67
  br label %69

69:                                               ; preds = %68, %52, %47
  call void @llvm.lifetime.end.p0(i64 1, ptr %15) #7
  call void @llvm.lifetime.end.p0(i64 8, ptr %14) #7
  call void @llvm.lifetime.end.p0(i64 8, ptr %13) #7
  call void @llvm.lifetime.end.p0(i64 144, ptr %12) #7
  call void @llvm.lifetime.end.p0(i64 8, ptr %11) #7
  ret void
}