; Function Attrs: nounwind uwtable
define dso_local void @RemoveAttrDefault(i32 noundef %0, i16 noundef signext %1, i32 noundef %2, i1 noundef zeroext %3, i1 noundef zeroext %4) local_unnamed_addr #0 {
  %6 = alloca [2 x %struct.ScanKeyData], align 16
  %7 = alloca %struct.ObjectAddress, align 4
  call void @llvm.lifetime.start.p0(i64 144, ptr nonnull %6) #6
  %8 = tail call ptr @table_open(i32 noundef 2604, i32 noundef 3) #6
  %9 = zext i32 %0 to i64
  call void @ScanKeyInit(ptr noundef nonnull %6, i16 noundef signext 2, i16 noundef zeroext 3, i32 noundef 184, i64 noundef %9) #6
  %10 = getelementptr inbounds nuw i8, ptr %6, i64 72
  %11 = sext i16 %1 to i64
  call void @ScanKeyInit(ptr noundef nonnull %10, i16 noundef signext 3, i16 noundef zeroext 3, i32 noundef 63, i64 noundef %11) #6
  %12 = call ptr @systable_beginscan(ptr noundef %8, i32 noundef 2656, i1 noundef zeroext true, ptr noundef null, i32 noundef 2, ptr noundef nonnull %6) #6
  %13 = call ptr @systable_getnext(ptr noundef %12) #6
  %.not15 = icmp eq ptr %13, null
  br i1 %.not15, label %._crit_edge, label %.lr.ph

.lr.ph:                                           ; preds = %5
  %14 = getelementptr inbounds nuw i8, ptr %7, i64 4
  %15 = getelementptr inbounds nuw i8, ptr %7, i64 8
  %16 = zext i1 %4 to i32
  br label %17

17:                                               ; preds = %.lr.ph, %17
  %18 = phi ptr [ %13, %.lr.ph ], [ %25, %17 ]
  call void @llvm.lifetime.start.p0(i64 12, ptr nonnull %7) #6
  %19 = getelementptr i8, ptr %18, i64 16
  %.val = load ptr, ptr %19, align 8
  %20 = getelementptr inbounds nuw i8, ptr %.val, i64 22
  %21 = load i8, ptr %20, align 2
  %22 = zext i8 %21 to i64
  %23 = getelementptr inbounds nuw i8, ptr %.val, i64 %22
  store i32 2604, ptr %7, align 4
  %24 = load i32, ptr %23, align 4
  store i32 %24, ptr %14, align 4
  store i32 0, ptr %15, align 4
  call void @performDeletion(ptr noundef nonnull %7, i32 noundef %2, i32 noundef %16) #6
  call void @llvm.lifetime.end.p0(i64 12, ptr nonnull %7) #6
  %25 = call ptr @systable_getnext(ptr noundef %12) #6
  %.not = icmp eq ptr %25, null
  br i1 %.not, label %._crit_edge, label %17, !llvm.loop !6

._crit_edge:                                      ; preds = %17, %5
  call void @systable_endscan(ptr noundef %12) #6
  call void @table_close(ptr noundef %8, i32 noundef 3) #6
  %brmerge.not = and i1 %3, %.not15
  br i1 %brmerge.not, label %26, label %30

26:                                               ; preds = %._crit_edge
  %27 = call zeroext i1 @errstart_cold(i32 noundef 21, ptr noundef null) #7
  call void @llvm.assume(i1 %27)
  %28 = sext i16 %1 to i32
  %29 = call i32 (ptr, ...) @errmsg_internal(ptr noundef nonnull @.str.2, i32 noundef %0, i32 noundef %28) #6
  call void @errfinish(ptr noundef nonnull @.str.1, i32 noundef 257, ptr noundef nonnull @__func__.RemoveAttrDefault) #6
  unreachable

30:                                               ; preds = %._crit_edge
  call void @llvm.lifetime.end.p0(i64 144, ptr nonnull %6) #6
  ret void
}